; Function Attrs: nounwind sspstrong uwtable
define dso_local void @tcg_gen_dupi_vec(i32 noundef %vece, ptr noundef %r, i64 noundef %a) local_unnamed_addr #0 {
entry:
  %0 = tail call align 8 ptr @llvm.threadlocal.address.p0(ptr align 8 @tcg_ctx)
  %1 = load ptr, ptr %0, align 8
  %2 = ptrtoint ptr %r to i64
  %add.ptr.i.i = getelementptr i8, ptr %1, i64 %2
  %bf.load = load i64, ptr %add.ptr.i.i, align 8
  %3 = trunc i64 %bf.load to i32
  %4 = lshr i32 %3, 16
  %bf.cast = and i32 %4, 255
  %call1 = tail call ptr @tcg_constant_vec(i32 noundef %bf.cast, i32 noundef %vece, i64 noundef %a) #5
  %cmp.not.i = icmp eq ptr %r, %call1
  br i1 %cmp.not.i, label %tcg_gen_mov_vec.exit, label %if.then.i

if.then.i:                                        ; preds = %entry
  %5 = load ptr, ptr %0, align 8
  %add.ptr.i.i.i.i = getelementptr i8, ptr %5, i64 %2
  %6 = ptrtoint ptr %call1 to i64
  %add.ptr.i.i4.i.i = getelementptr i8, ptr %5, i64 %6
  %bf.load.i.i = load i64, ptr %add.ptr.i.i.i.i, align 8
  %7 = trunc i64 %bf.load.i.i to i32
  %8 = lshr i32 %7, 16
  %bf.cast.i.i = and i32 %8, 255
  %bf.load2.i.i = load i64, ptr %add.ptr.i.i4.i.i, align 8
  %9 = trunc i64 %bf.load2.i.i to i32
  %10 = lshr i32 %9, 16
  %bf.cast5.i.i = and i32 %10, 255
  %cmp.i.i = icmp samesign uge i32 %bf.cast5.i.i, %bf.cast.i.i
  tail call void @llvm.assume(i1 %cmp.i.i)
  %11 = ptrtoint ptr %add.ptr.i.i.i.i to i64
  %12 = ptrtoint ptr %add.ptr.i.i4.i.i to i64
  %call.i.i.i = tail call ptr @tcg_emit_op(i32 noundef 149, i32 noundef 2) #5
  %bf.load.i.i.i = load i32, ptr %call.i.i.i, align 8
  %sub.i.i.i = shl nuw nsw i32 %bf.cast.i.i, 16
  %bf.value.i.i.i = add nuw nsw i32 %sub.i.i.i, 16580608
  %bf.clear.i.i.i = and i32 %bf.load.i.i.i, 65535
  %bf.value.masked.i.i.i = and i32 %bf.value.i.i.i, 16711680
  %bf.clear4.i.i.i = or disjoint i32 %bf.value.masked.i.i.i, %bf.clear.i.i.i
  store i32 %bf.clear4.i.i.i, ptr %call.i.i.i, align 8
  %args.i.i.i = getelementptr inbounds nuw i8, ptr %call.i.i.i, i64 32
  store i64 %11, ptr %args.i.i.i, align 8
  %arrayidx7.i.i.i = getelementptr i8, ptr %call.i.i.i, i64 40
  store i64 %12, ptr %arrayidx7.i.i.i, align 8
  br label %tcg_gen_mov_vec.exit

tcg_gen_mov_vec.exit:                             ; preds = %entry, %if.then.i
  ret void
}